Certificate Request:
    Data:
        Version: 1 (0x0)
        Subject: C = FR, L = Limoges, O = TMC, OU = IOT, CN = serveur.iot.com
        Subject Public Key Info:
            Public Key Algorithm: id-ecPublicKey
                Public-Key: (256 bit)
                pub:
                    04:dc:e6:53:4c:a0:7c:20:46:06:82:a3:63:68:ab:
                    df:f4:66:1a:05:58:ba:a9:61:90:9c:77:db:04:02:
                    71:73:b8:5d:cb:8f:b5:7a:df:07:fa:1a:e8:93:68:
                    74:1f:c4:6c:2c:89:53:53:c0:15:3e:2d:12:f2:11:
                    07:3d:6f:0c:bb
                ASN1 OID: prime256v1
                NIST CURVE: P-256
        Attributes:
        Requested Extensions:
            X509v3 Basic Constraints: 
                CA:FALSE
    Signature Algorithm: ecdsa-with-SHA256
         30:45:02:21:00:83:af:2b:90:df:08:f4:fb:03:17:eb:0e:11:
         db:d8:87:c0:dc:f3:ef:3a:a0:da:5d:78:27:18:71:57:10:fe:
         69:02:20:3b:f0:ab:12:df:67:39:4b:94:4b:16:c2:49:96:27:
         e7:7b:11:dc:92:a0:4d:60:00:29:70:ff:c7:53:6f:af:c0
-----BEGIN CERTIFICATE REQUEST-----
MIIBLDCB0wIBADBVMQswCQYDVQQGEwJGUjEQMA4GA1UEBwwHTGltb2dlczEMMAoG
A1UECgwDVE1DMQwwCgYDVQQLDANJT1QxGDAWBgNVBAMMD3NlcnZldXIuaW90LmNv
bTBZMBMGByqGSM49AgEGCCqGSM49AwEHA0IABNzmU0ygfCBGBoKjY2ir3/RmGgVY
uqlhkJx32wQCcXO4XcuPtXrfB/oa6JNodB/EbCyJU1PAFT4tEvIRBz1vDLugHDAa
BgkqhkiG9w0BCQ4xDTALMAkGA1UdEwQCMAAwCgYIKoZIzj0EAwIDSAAwRQIhAIOv
K5DfCPT7AxfrDhHb2IfA3PPvOqDaXXgnGHFXEP5pAiA78KsS32c5S5RLFsJJlifn
exHckqBNYAApcP/HU2+vwA==
-----END CERTIFICATE REQUEST-----
